target datalayout = "e-m:e-p270:32:32-p271:32:32-p272:64:64-i64:64-i128:128-f80:128-n8:16:32:64-S128"
target triple = "x86_64-pc-linux-gnu"

%struct.ImGuiContext = type { i8, i8, %struct.ImGuiIO, %struct.ImGuiPlatformIO, %struct.ImGuiStyle, ptr, float, float, float, float, %struct.ImDrawListSharedData, double, i32, i32, i32, i32, i8, i8, i8, i8, ptr, [16 x i8], %struct.ImVector.1, %struct.ImVector.1, i32, i32, %struct.ImVector.2, %struct.ImVector.2, %struct.ImVector.2, %struct.ImVector.3, %struct.ImGuiStorage, i32, float, i32, ptr, ptr, ptr, ptr, ptr, ptr, %struct.ImVec2, i32, i32, float, %struct.ImVec2, %struct.ImVec2, i32, i32, i32, i32, i32, float, float, i8, i8, i8, i32, i32, float, i8, i8, i8, i8, i8, i8, i8, i8, %struct.ImVec2, ptr, i32, i32, %struct.ImGuiDeactivatedItemData, %struct.ImGuiDataTypeStorage, i32, float, double, double, double, %struct.ImBitArray, [154 x %struct.ImGuiKeyOwnerData], %struct.ImGuiKeyRoutingTable, i32, i8, i32, i32, i32, i32, %struct.ImGuiNextItemData, %struct.ImGuiLastItemData, %struct.ImGuiNextWindowData, i8, i32, %struct.ImVector.6, %struct.ImVector.7, %struct.ImVector.8, %struct.ImVector.9, %struct.ImVector.10, %struct.ImVector.11, %struct.ImVector.12, %struct.ImVector.12, %struct.ImVector.13, %struct.ImVector.14, i8, i8, i8, i8, i32, ptr, i32, i32, i32, i32, i32, i32, %struct.ImVector.9, i32, float, i32, i32, i32, i64, i8, i8, i8, i8, %struct.ImGuiNavItemData, i8, i8, i8, i32, i32, i32, i32, i32, i32, %struct.ImRect, %struct.ImRect, i32, i32, i32, %struct.ImGuiNavItemData, %struct.ImGuiNavItemData, %struct.ImGuiNavItemData, %struct.ImGuiNavItemData, i32, i32, i32, i32, i8, i8, i32, i32, ptr, ptr, ptr, float, float, i8, i32, %struct.ImVec2, %struct.ImVec2, float, i8, i8, i8, i32, i32, i32, [4 x i8], %struct.ImGuiPayload, %struct.ImRect, %struct.ImRect, i32, i32, float, i32, i32, i32, i32, %struct.ImVector.15, [16 x i8], i32, %struct.ImVector.16, ptr, i32, i32, %struct.ImVector.17, %struct.ImPool, %struct.ImVector.19, %struct.ImVector.20, ptr, %struct.ImPool.21, %struct.ImVector.23, %struct.ImVector.24, %struct.ImGuiBoxSelectState, ptr, i32, %struct.ImVector.25, %struct.ImPool.26, i32, i32, float, float, i32, i32, i32, float, %struct.ImVec2, %struct.ImGuiInputTextState, %struct.ImGuiInputTextDeactivatedState, %struct.ImFont, i32, %struct.ImGuiDataTypeStorage, i32, i32, i32, i32, i32, float, float, i32, %struct.ImVec4, %struct.ImGuiComboPreviewData, %struct.ImRect, i8, i16, float, float, float, i8, i8, float, float, float, i16, i16, ptr, %struct.ImVector.28, %struct.ImVector.30, %struct.ImGuiTypingSelectState, %struct.ImGuiPlatformImeData, %struct.ImGuiPlatformImeData, i8, float, %struct.ImGuiTextBuffer, %struct.ImVector.31, %struct.ImChunkStream, %struct.ImChunkStream.32, %struct.ImVector.33, i32, [10 x ptr], i8, i32, ptr, ptr, %struct.ImGuiTextBuffer, ptr, ptr, float, i8, i32, i32, i32, ptr, ptr, %struct.ImVec2, i8, i32, %struct.ImGuiErrorRecoveryState, ptr, i32, i32, %struct.ImGuiTextBuffer, %struct.ImGuiTextIndex, i32, i32, i8, i8, i8, i32, i8, i8, i8, i32, float, %struct.ImVec4, %struct.ImGuiMetricsConfig, %struct.ImGuiIDStackTool, %struct.ImGuiDebugAllocInfo, [60 x float], i32, i32, float, i32, i32, i32, %struct.ImVector.28, [64 x i8] }
%struct.ImGuiIO = type { i32, i32, %struct.ImVec2, float, float, ptr, ptr, ptr, ptr, float, i8, ptr, %struct.ImVec2, i8, i8, i8, i8, i8, i8, i8, i8, i8, i8, i8, i8, i8, i8, i8, i8, i8, float, float, float, float, float, float, i8, i8, i8, i8, i8, i8, i8, i8, i8, i8, ptr, ptr, ptr, ptr, ptr, i8, i8, i8, i8, i8, i8, i8, float, i32, i32, i32, i32, %struct.ImVec2, ptr, %struct.ImVec2, [5 x i8], float, float, i32, i8, i8, i8, i8, i32, [154 x %struct.ImGuiKeyData], i8, %struct.ImVec2, [5 x %struct.ImVec2], [5 x double], [5 x i8], [5 x i8], [5 x i16], [5 x i16], [5 x i8], [5 x double], [5 x i8], [5 x i8], i8, i8, [5 x float], [5 x float], [5 x float], float, i8, i8, i16, %struct.ImVector, ptr, ptr, ptr }
%struct.ImGuiKeyData = type { i8, float, float, float }
%struct.ImVector = type { i32, i32, ptr }
%struct.ImGuiPlatformIO = type { ptr, ptr, ptr, ptr, ptr, ptr, ptr, i16, ptr }
%struct.ImGuiStyle = type { float, float, %struct.ImVec2, float, float, float, %struct.ImVec2, %struct.ImVec2, i32, float, float, float, float, %struct.ImVec2, float, float, %struct.ImVec2, %struct.ImVec2, %struct.ImVec2, %struct.ImVec2, float, float, float, float, float, float, float, float, float, float, float, float, float, float, %struct.ImVec2, i32, %struct.ImVec2, %struct.ImVec2, float, %struct.ImVec2, %struct.ImVec2, %struct.ImVec2, %struct.ImVec2, float, i8, i8, i8, float, float, [56 x %struct.ImVec4], float, float, float, i32, i32 }
%struct.ImDrawListSharedData = type <{ %struct.ImVec2, ptr, ptr, float, float, float, float, float, i32, %struct.ImVec4, %struct.ImVector.0, [48 x %struct.ImVec2], float, [64 x i8], [4 x i8] }>
%struct.ImVector.0 = type { i32, i32, ptr }
%struct.ImVector.1 = type { i32, i32, ptr }
%struct.ImVector.2 = type { i32, i32, ptr }
%struct.ImVector.3 = type { i32, i32, ptr }
%struct.ImGuiStorage = type { %struct.ImVector.4 }
%struct.ImVector.4 = type { i32, i32, ptr }
%struct.ImGuiDeactivatedItemData = type { i32, i32, i8, i8 }
%struct.ImBitArray = type { [5 x i32] }
%struct.ImGuiKeyOwnerData = type <{ i32, i32, i8, i8, [2 x i8] }>
%struct.ImGuiKeyRoutingTable = type { [154 x i16], %struct.ImVector.5, %struct.ImVector.5 }
%struct.ImVector.5 = type { i32, i32, ptr }
%struct.ImGuiNextItemData = type <{ i32, i32, i32, [4 x i8], i64, float, i32, i32, i8, i8, %struct.ImGuiDataTypeStorage, [2 x i8], i32, [4 x i8] }>
%struct.ImGuiLastItemData = type { i32, i32, i32, %struct.ImRect, %struct.ImRect, %struct.ImRect, %struct.ImRect, i32 }
%struct.ImGuiNextWindowData = type { i32, i32, i32, i32, %struct.ImVec2, %struct.ImVec2, %struct.ImVec2, %struct.ImVec2, %struct.ImVec2, i32, i32, i8, %struct.ImRect, ptr, ptr, float, %struct.ImVec2, i32 }
%struct.ImVector.6 = type { i32, i32, ptr }
%struct.ImVector.7 = type { i32, i32, ptr }
%struct.ImVector.8 = type { i32, i32, ptr }
%struct.ImVector.10 = type { i32, i32, ptr }
%struct.ImVector.11 = type { i32, i32, ptr }
%struct.ImVector.12 = type { i32, i32, ptr }
%struct.ImVector.13 = type { i32, i32, ptr }
%struct.ImVector.14 = type { i32, i32, ptr }
%struct.ImVector.9 = type { i32, i32, ptr }
%struct.ImGuiNavItemData = type { ptr, i32, i32, %struct.ImRect, i32, float, float, float, i64 }
%struct.ImGuiPayload = type <{ ptr, i32, i32, i32, i32, [33 x i8], i8, i8, [5 x i8] }>
%struct.ImVector.15 = type { i32, i32, ptr }
%struct.ImVector.16 = type { i32, i32, ptr }
%struct.ImVector.17 = type { i32, i32, ptr }
%struct.ImPool = type { %struct.ImVector.18, %struct.ImGuiStorage, i32, i32 }
%struct.ImVector.18 = type { i32, i32, ptr }
%struct.ImVector.19 = type { i32, i32, ptr }
%struct.ImVector.20 = type { i32, i32, ptr }
%struct.ImPool.21 = type { %struct.ImVector.22, %struct.ImGuiStorage, i32, i32 }
%struct.ImVector.22 = type { i32, i32, ptr }
%struct.ImVector.23 = type { i32, i32, ptr }
%struct.ImVector.24 = type { i32, i32, ptr }
%struct.ImGuiBoxSelectState = type <{ i32, i8, i8, i8, i8, i8, i16, i8, %struct.ImVec2, %struct.ImVec2, %struct.ImVec2, [4 x i8], ptr, i8, [3 x i8], %struct.ImRect, %struct.ImRect, %struct.ImRect, [4 x i8] }>
%struct.ImVector.25 = type { i32, i32, ptr }
%struct.ImPool.26 = type { %struct.ImVector.27, %struct.ImGuiStorage, i32, i32 }
%struct.ImVector.27 = type { i32, i32, ptr }
%struct.ImGuiInputTextState = type <{ ptr, ptr, i32, i32, i32, [4 x i8], ptr, %struct.ImVector.28, %struct.ImVector.28, %struct.ImVector.28, i32, %struct.ImVec2, float, i8, i8, i8, i8, i32, i32, [4 x i8] }>
%struct.ImGuiInputTextDeactivatedState = type { i32, %struct.ImVector.28 }
%struct.ImFont = type <{ %struct.ImVector.19, float, float, %struct.ImVector, %struct.ImVector.29, ptr, ptr, ptr, i16, i16, i16, i16, float, float, float, float, float, i32, i8, [1 x i8], [6 x i8] }>
%struct.ImVector.29 = type { i32, i32, ptr }
%struct.ImGuiDataTypeStorage = type { [8 x i8] }
%struct.ImGuiComboPreviewData = type { %struct.ImRect, %struct.ImVec2, %struct.ImVec2, %struct.ImVec2, float, i32 }
%struct.ImRect = type { %struct.ImVec2, %struct.ImVec2 }
%struct.ImVector.30 = type { i32, i32, ptr }
%struct.ImGuiTypingSelectState = type <{ %struct.ImGuiTypingSelectRequest, [64 x i8], i32, i32, float, i8, [3 x i8] }>
%struct.ImGuiTypingSelectRequest = type { i32, i32, ptr, i8, i8, i8 }
%struct.ImGuiPlatformImeData = type { i8, %struct.ImVec2, float }
%struct.ImVector.31 = type { i32, i32, ptr }
%struct.ImChunkStream = type { %struct.ImVector.28 }
%struct.ImChunkStream.32 = type { %struct.ImVector.28 }
%struct.ImVector.33 = type { i32, i32, ptr }
%struct.ImVec2 = type { float, float }
%struct.ImGuiErrorRecoveryState = type { i16, i16, i16, i16, i16, i16, i16, i16, i16, i16, i16 }
%struct.ImGuiTextBuffer = type { %struct.ImVector.28 }
%struct.ImGuiTextIndex = type <{ %struct.ImVector.10, i32, [4 x i8] }>
%struct.ImVec4 = type { float, float, float, float }
%struct.ImGuiMetricsConfig = type { i8, i8, i8, i8, i8, i8, i8, i8, i8, i32, i32, i32, i32 }
%struct.ImGuiIDStackTool = type { i32, i32, i32, %struct.ImVector.34, i8, float }
%struct.ImVector.34 = type { i32, i32, ptr }
%struct.ImGuiDebugAllocInfo = type { i32, i32, i16, [6 x %struct.ImGuiDebugAllocEntry] }
%struct.ImGuiDebugAllocEntry = type { i32, i16, i16 }
%struct.ImVector.28 = type { i32, i32, ptr }
%struct.ImGuiTableInstanceData = type { i32, float, float, float, i32, i32 }
%struct.ImGuiTableColumn = type <{ i32, float, float, float, float, float, float, float, float, %struct.ImRect, i32, float, float, float, float, float, float, float, i16, i16, i16, i16, i16, i16, i16, i16, i16, i8, i8, i8, i8, i8, i8, i8, i8, i8, i8, i8, i8, i8, i8 }>
%struct.ImGuiTable = type <{ i32, i32, ptr, ptr, %struct.ImSpan, %struct.ImSpan.41, %struct.ImSpan.42, ptr, ptr, ptr, i32, i32, i32, i32, i32, i32, i16, i16, float, float, float, float, float, float, i32, i32, [2 x i32], i32, i32, float, float, float, float, float, float, float, float, float, float, float, float, float, float, float, float, float, %struct.ImRect, %struct.ImRect, %struct.ImRect, %struct.ImRect, %struct.ImRect, %struct.ImRect, %struct.ImRect, %struct.ImRect, %struct.ImRect, ptr, ptr, %struct.ImGuiTextBuffer, ptr, %struct.ImGuiTableInstanceData, %struct.ImVector.43, %struct.ImGuiTableColumnSortSpecs, [4 x i8], %struct.ImVector.44, %struct.ImGuiTableSortSpecs, i16, i16, i16, i16, i16, i16, i16, i16, i16, i16, i16, i16, i16, i16, i16, i16, i16, i16, i16, i16, i16, i16, i16, i16, i16, i16, i16, i8, i8, i8, i8, i8, i8, i8, i8, i8, i8, i8, i8, i8, i8, i8, i8, i8, i8, i8, i8, i8, [5 x i8] }>
%struct.ImSpan = type { ptr, ptr }
%struct.ImSpan.41 = type { ptr, ptr }
%struct.ImSpan.42 = type { ptr, ptr }
%struct.ImVector.43 = type { i32, i32, ptr }
%struct.ImGuiTableColumnSortSpecs = type <{ i32, i16, i16, i8, [3 x i8] }>
%struct.ImVector.44 = type { i32, i32, ptr }
%struct.ImGuiTableSortSpecs = type <{ ptr, i32, i8, [3 x i8] }>

@GImGui = external global ptr, align 8
@.str.4 = private unnamed_addr constant [54 x i8] c"Call should only be done while in BeginTable() scope!\00", align 1

; Function Attrs: inlinehint mustprogress nounwind uwtable
define linkonce_odr noundef nonnull align 4 dereferenceable(115) ptr @_ZN6ImSpanI16ImGuiTableColumnEixEi(ptr noundef nonnull align 8 dereferenceable(16) %0, i32 noundef %1) #4 comdat align 2 {
  %3 = alloca ptr, align 8
  %4 = alloca i32, align 4
  %5 = alloca ptr, align 8
  store ptr %0, ptr %3, align 8, !tbaa !345
  store i32 %1, ptr %4, align 4, !tbaa !3
  %6 = load ptr, ptr %3, align 8
  call void @llvm.lifetime.start.p0(i64 8, ptr %5) #8
  %7 = getelementptr inbounds nuw %struct.ImSpan, ptr %6, i32 0, i32 0
  %8 = load ptr, ptr %7, align 8, !tbaa !348
  %9 = load i32, ptr %4, align 4, !tbaa !3
  %10 = sext i32 %9 to i64
  %11 = getelementptr inbounds %struct.ImGuiTableColumn, ptr %8, i64 %10
  store ptr %11, ptr %5, align 8, !tbaa !265
  %12 = load ptr, ptr %5, align 8, !tbaa !265
  call void @llvm.lifetime.end.p0(i64 8, ptr %5) #8
  ret ptr %12
}

; Function Attrs: mustprogress uwtable
define void @_ZN5ImGui21TableSetColumnEnabledEib(i32 noundef %0, i1 noundef zeroext %1) #0 {
  %3 = alloca i32, align 4
  %4 = alloca i8, align 1
  %5 = alloca ptr, align 8
  %6 = alloca ptr, align 8
  %7 = alloca i32, align 4
  %8 = alloca ptr, align 8
  store i32 %0, ptr %3, align 4, !tbaa !3
  %9 = zext i1 %1 to i8
  store i8 %9, ptr %4, align 1, !tbaa !69
  call void @llvm.lifetime.start.p0(i64 8, ptr %5) #8
  %10 = load ptr, ptr @GImGui, align 8, !tbaa !7
  store ptr %10, ptr %5, align 8, !tbaa !7
  call void @llvm.lifetime.start.p0(i64 8, ptr %6) #8
  %11 = load ptr, ptr %5, align 8, !tbaa !7
  %12 = getelementptr inbounds nuw %struct.ImGuiContext, ptr %11, i32 0, i32 183
  %13 = load ptr, ptr %12, align 8, !tbaa !257
  store ptr %13, ptr %6, align 8, !tbaa !167
  %14 = load ptr, ptr %6, align 8, !tbaa !167
  %15 = icmp eq ptr %14, null
  br i1 %15, label %16, label %26

16:                                               ; preds = %2
  br label %17

17:                                               ; preds = %16
  %18 = load ptr, ptr %6, align 8, !tbaa !167
  %19 = icmp ne ptr %18, null
  br i1 %19, label %23, label %20

20:                                               ; preds = %17
  %21 = call noundef zeroext i1 @_ZN5ImGui8ErrorLogEPKc(ptr noundef @.str.4)
  br i1 %21, label %22, label %23

22:                                               ; preds = %20
  br label %23

23:                                               ; preds = %22, %20, %17
  br label %24

24:                                               ; preds = %23
  br label %25

25:                                               ; preds = %24
  store i32 1, ptr %7, align 4
  br label %43

26:                                               ; preds = %2
  %27 = load i32, ptr %3, align 4, !tbaa !3
  %28 = icmp slt i32 %27, 0
  br i1 %28, label %29, label %33

29:                                               ; preds = %26
  %30 = load ptr, ptr %6, align 8, !tbaa !167
  %31 = getelementptr inbounds nuw %struct.ImGuiTable, ptr %30, i32 0, i32 15
  %32 = load i32, ptr %31, align 4, !tbaa !235
  store i32 %32, ptr %3, align 4, !tbaa !3
  br label %33

33:                                               ; preds = %29, %26
  call void @llvm.lifetime.start.p0(i64 8, ptr %8) #8
  %34 = load ptr, ptr %6, align 8, !tbaa !167
  %35 = getelementptr inbounds nuw %struct.ImGuiTable, ptr %34, i32 0, i32 4
  %36 = load i32, ptr %3, align 4, !tbaa !3
  %37 = call noundef nonnull align 4 dereferenceable(115) ptr @_ZN6ImSpanI16ImGuiTableColumnEixEi(ptr noundef nonnull align 8 dereferenceable(16) %35, i32 noundef %36)
  store ptr %37, ptr %8, align 8, !tbaa !265
  %38 = load i8, ptr %4, align 1, !tbaa !69, !range !67, !noundef !68
  %39 = trunc i8 %38 to i1
  %40 = load ptr, ptr %8, align 8, !tbaa !265
  %41 = getelementptr inbounds nuw %struct.ImGuiTableColumn, ptr %40, i32 0, i32 29
  %42 = zext i1 %39 to i8
  store i8 %42, ptr %41, align 4, !tbaa !289
  call void @llvm.lifetime.end.p0(i64 8, ptr %8) #8
  store i32 0, ptr %7, align 4
  br label %43

43:                                               ; preds = %33, %25
  call void @llvm.lifetime.end.p0(i64 8, ptr %6) #8
  call void @llvm.lifetime.end.p0(i64 8, ptr %5) #8
  %44 = load i32, ptr %7, align 4
  switch i32 %44, label %46 [
    i32 0, label %45
    i32 1, label %45
  ]

45:                                               ; preds = %43, %43
  ret void

46:                                               ; preds = %43
  unreachable
}