; Function Attrs: mustprogress uwtable
define void @_ZN5ImGui21TableSetColumnEnabledEib(i32 noundef %0, i1 noundef zeroext %1) local_unnamed_addr #0 {
  %3 = zext i1 %1 to i8
  %4 = load ptr, ptr @GImGui, align 8, !tbaa !3
  %5 = getelementptr inbounds nuw i8, ptr %4, i64 8640
  %6 = load ptr, ptr %5, align 8, !tbaa !266
  %7 = icmp eq ptr %6, null
  br i1 %7, label %8, label %10

8:                                                ; preds = %2
  %9 = tail call noundef zeroext i1 @_ZN5ImGui8ErrorLogEPKc(ptr noundef nonnull @.str.4)
  br label %20

10:                                               ; preds = %2
  %11 = icmp slt i32 %0, 0
  br i1 %11, label %12, label %15

12:                                               ; preds = %10
  %13 = getelementptr inbounds nuw i8, ptr %6, i64 116
  %14 = load i32, ptr %13, align 4, !tbaa !249
  br label %15

15:                                               ; preds = %12, %10
  %.0 = phi i32 [ %14, %12 ], [ %0, %10 ]
  %16 = getelementptr inbounds nuw i8, ptr %6, i64 24
  %17 = load ptr, ptr %16, align 8, !tbaa !278
  %18 = sext i32 %.0 to i64
  %19 = getelementptr inbounds %struct.ImGuiTableColumn, ptr %17, i64 %18, i32 29
  store i8 %3, ptr %19, align 4, !tbaa !312
  br label %20

20:                                               ; preds = %15, %8
  ret void
}